target datalayout = "e-m:e-p270:32:32-p271:32:32-p272:64:64-i64:64-i128:128-f80:128-n8:16:32:64-S128"
target triple = "x86_64-pc-linux-gnu"

%struct.ref_iterator_vtable = type { ptr, ptr, ptr }
%struct.ref_iterator = type { ptr, ptr, ptr, ptr, i32 }

@current_ref_iter = dso_local global ptr null, align 8

; Function Attrs: nounwind uwtable
define dso_local i32 @ref_iterator_abort(ptr noundef %0) #0 {
  %2 = alloca ptr, align 8
  store ptr %0, ptr %2, align 8, !tbaa !4
  %3 = load ptr, ptr %2, align 8, !tbaa !4
  %4 = getelementptr inbounds nuw %struct.ref_iterator, ptr %3, i32 0, i32 0
  %5 = load ptr, ptr %4, align 8, !tbaa !9
  %6 = getelementptr inbounds nuw %struct.ref_iterator_vtable, ptr %5, i32 0, i32 2
  %7 = load ptr, ptr %6, align 8, !tbaa !19
  %8 = load ptr, ptr %2, align 8, !tbaa !4
  %9 = call i32 %7(ptr noundef %8)
  ret i32 %9
}

; Function Attrs: nounwind uwtable
define dso_local i32 @ref_iterator_advance(ptr noundef %0) #0 {
  %2 = alloca ptr, align 8
  store ptr %0, ptr %2, align 8, !tbaa !4
  %3 = load ptr, ptr %2, align 8, !tbaa !4
  %4 = getelementptr inbounds nuw %struct.ref_iterator, ptr %3, i32 0, i32 0
  %5 = load ptr, ptr %4, align 8, !tbaa !9
  %6 = getelementptr inbounds nuw %struct.ref_iterator_vtable, ptr %5, i32 0, i32 0
  %7 = load ptr, ptr %6, align 8, !tbaa !15
  %8 = load ptr, ptr %2, align 8, !tbaa !4
  %9 = call i32 %7(ptr noundef %8)
  ret i32 %9
}

; Function Attrs: nounwind uwtable
define dso_local i32 @do_for_each_ref_iterator(ptr noundef %0, ptr noundef %1, ptr noundef %2) #0 {
  %4 = alloca i32, align 4
  %5 = alloca ptr, align 8
  %6 = alloca ptr, align 8
  %7 = alloca ptr, align 8
  %8 = alloca i32, align 4
  %9 = alloca i32, align 4
  %10 = alloca ptr, align 8
  %11 = alloca i32, align 4
  store ptr %0, ptr %5, align 8, !tbaa !4
  store ptr %1, ptr %6, align 8, !tbaa !27
  store ptr %2, ptr %7, align 8, !tbaa !27
  call void @llvm.lifetime.start.p0(i64 4, ptr %8) #6
  store i32 0, ptr %8, align 4, !tbaa !28
  call void @llvm.lifetime.start.p0(i64 4, ptr %9) #6
  call void @llvm.lifetime.start.p0(i64 8, ptr %10) #6
  %12 = load ptr, ptr @current_ref_iter, align 8, !tbaa !4
  store ptr %12, ptr %10, align 8, !tbaa !4
  %13 = load ptr, ptr %5, align 8, !tbaa !4
  store ptr %13, ptr @current_ref_iter, align 8, !tbaa !4
  br label %14

14:                                               ; preds = %39, %3
  %15 = load ptr, ptr %5, align 8, !tbaa !4
  %16 = call i32 @ref_iterator_advance(ptr noundef %15)
  store i32 %16, ptr %9, align 4, !tbaa !28
  %17 = icmp eq i32 %16, 0
  br i1 %17, label %18, label %40

18:                                               ; preds = %14
  %19 = load ptr, ptr %6, align 8, !tbaa !27
  %20 = load ptr, ptr %5, align 8, !tbaa !4
  %21 = getelementptr inbounds nuw %struct.ref_iterator, ptr %20, i32 0, i32 1
  %22 = load ptr, ptr %21, align 8, !tbaa !21
  %23 = load ptr, ptr %5, align 8, !tbaa !4
  %24 = getelementptr inbounds nuw %struct.ref_iterator, ptr %23, i32 0, i32 2
  %25 = load ptr, ptr %24, align 8, !tbaa !22
  %26 = load ptr, ptr %5, align 8, !tbaa !4
  %27 = getelementptr inbounds nuw %struct.ref_iterator, ptr %26, i32 0, i32 3
  %28 = load ptr, ptr %27, align 8, !tbaa !23
  %29 = load ptr, ptr %5, align 8, !tbaa !4
  %30 = getelementptr inbounds nuw %struct.ref_iterator, ptr %29, i32 0, i32 4
  %31 = load i32, ptr %30, align 8, !tbaa !24
  %32 = load ptr, ptr %7, align 8, !tbaa !27
  %33 = call i32 %19(ptr noundef %22, ptr noundef %25, ptr noundef %28, i32 noundef %31, ptr noundef %32)
  store i32 %33, ptr %8, align 4, !tbaa !28
  %34 = load i32, ptr %8, align 4, !tbaa !28
  %35 = icmp ne i32 %34, 0
  br i1 %35, label %36, label %39

36:                                               ; preds = %18
  %37 = load ptr, ptr %5, align 8, !tbaa !4
  %38 = call i32 @ref_iterator_abort(ptr noundef %37)
  br label %41

39:                                               ; preds = %18
  br label %14, !llvm.loop !46

40:                                               ; preds = %14
  br label %41

41:                                               ; preds = %40, %36
  %42 = load ptr, ptr %10, align 8, !tbaa !4
  store ptr %42, ptr @current_ref_iter, align 8, !tbaa !4
  %43 = load i32, ptr %9, align 4, !tbaa !28
  %44 = icmp eq i32 %43, -2
  br i1 %44, label %45, label %46

45:                                               ; preds = %41
  store i32 -1, ptr %4, align 4
  store i32 1, ptr %11, align 4
  br label %48

46:                                               ; preds = %41
  %47 = load i32, ptr %8, align 4, !tbaa !28
  store i32 %47, ptr %4, align 4
  store i32 1, ptr %11, align 4
  br label %48

48:                                               ; preds = %46, %45
  call void @llvm.lifetime.end.p0(i64 8, ptr %10) #6
  call void @llvm.lifetime.end.p0(i64 4, ptr %9) #6
  call void @llvm.lifetime.end.p0(i64 4, ptr %8) #6
  %49 = load i32, ptr %4, align 4
  ret i32 %49
}