; Function Attrs: nounwind uwtable
define dso_local i32 @do_for_each_ref_iterator(ptr noundef %0, ptr noundef readonly captures(none) %1, ptr noundef %2) local_unnamed_addr #0 {
  %4 = load ptr, ptr @current_ref_iter, align 8, !tbaa !31
  store ptr %0, ptr @current_ref_iter, align 8, !tbaa !31
  %5 = getelementptr inbounds nuw i8, ptr %0, i64 8
  %6 = getelementptr inbounds nuw i8, ptr %0, i64 16
  %7 = getelementptr inbounds nuw i8, ptr %0, i64 24
  %8 = getelementptr inbounds nuw i8, ptr %0, i64 32
  br label %9

9:                                                ; preds = %14, %3
  %10 = load ptr, ptr %0, align 8, !tbaa !4
  %11 = load ptr, ptr %10, align 8, !tbaa !13
  %12 = tail call i32 %11(ptr noundef nonnull %0) #11
  %13 = icmp eq i32 %12, 0
  br i1 %13, label %14, label %.loopexit.loopexit

14:                                               ; preds = %9
  %15 = load ptr, ptr %5, align 8, !tbaa !17
  %16 = load ptr, ptr %6, align 8, !tbaa !32
  %17 = load ptr, ptr %7, align 8, !tbaa !33
  %18 = load i32, ptr %8, align 8, !tbaa !34
  %19 = tail call i32 %1(ptr noundef %15, ptr noundef %16, ptr noundef %17, i32 noundef %18, ptr noundef %2) #11
  %.not = icmp eq i32 %19, 0
  br i1 %.not, label %9, label %20, !llvm.loop !35

20:                                               ; preds = %14
  %21 = load ptr, ptr %0, align 8, !tbaa !4
  %22 = getelementptr inbounds nuw i8, ptr %21, i64 16
  %23 = load ptr, ptr %22, align 8, !tbaa !16
  %24 = tail call i32 %23(ptr noundef nonnull %0) #11
  br label %.loopexit

.loopexit.loopexit:                               ; preds = %9
  %25 = icmp eq i32 %12, -2
  %26 = sext i1 %25 to i32
  br label %.loopexit

.loopexit:                                        ; preds = %.loopexit.loopexit, %20
  %..1 = phi i32 [ %19, %20 ], [ %26, %.loopexit.loopexit ]
  store ptr %4, ptr @current_ref_iter, align 8, !tbaa !31
  ret i32 %..1
}